target datalayout = "e-m:e-p270:32:32-p271:32:32-p272:64:64-i64:64-i128:128-f80:128-n8:16:32:64-S128"
target triple = "x86_64-pc-linux-gnu"

%struct._lv_anim_t = type { ptr, ptr, ptr, ptr, ptr, ptr, ptr, ptr, ptr, i32, i32, i32, i32, i32, i32, i32, i32, i32, %union._lv_anim_path_para_t, i32, i8 }
%union._lv_anim_path_para_t = type { %struct.lv_anim_bezier3_para_t }
%struct.lv_anim_bezier3_para_t = type { i16, i16, i16, i16 }

; Function Attrs: nounwind uwtable
define i32 @lv_anim_get_playtime(ptr noundef %0) #0 {
  %2 = alloca i32, align 4
  %3 = alloca ptr, align 8
  %4 = alloca i32, align 4
  %5 = alloca i32, align 4
  store ptr %0, ptr %3, align 8, !tbaa !21
  %6 = load ptr, ptr %3, align 8, !tbaa !21
  %7 = getelementptr inbounds nuw %struct._lv_anim_t, ptr %6, i32 0, i32 17
  %8 = load i32, ptr %7, align 8, !tbaa !40
  %9 = icmp eq i32 %8, -1
  br i1 %9, label %10, label %11

10:                                               ; preds = %1
  store i32 -1, ptr %2, align 4
  br label %38

11:                                               ; preds = %1
  call void @llvm.lifetime.start.p0(i64 4, ptr %4) #4
  %12 = load ptr, ptr %3, align 8, !tbaa !21
  %13 = getelementptr inbounds nuw %struct._lv_anim_t, ptr %12, i32 0, i32 17
  %14 = load i32, ptr %13, align 8, !tbaa !40
  store i32 %14, ptr %4, align 4, !tbaa !26
  %15 = load i32, ptr %4, align 4, !tbaa !26
  %16 = icmp ult i32 %15, 1
  br i1 %16, label %17, label %18

17:                                               ; preds = %11
  store i32 1, ptr %4, align 4, !tbaa !26
  br label %18

18:                                               ; preds = %17, %11
  call void @llvm.lifetime.start.p0(i64 4, ptr %5) #4
  %19 = load ptr, ptr %3, align 8, !tbaa !21
  %20 = getelementptr inbounds nuw %struct._lv_anim_t, ptr %19, i32 0, i32 16
  %21 = load i32, ptr %20, align 4, !tbaa !44
  %22 = load ptr, ptr %3, align 8, !tbaa !21
  %23 = getelementptr inbounds nuw %struct._lv_anim_t, ptr %22, i32 0, i32 12
  %24 = load i32, ptr %23, align 4, !tbaa !32
  %25 = add i32 %21, %24
  %26 = load ptr, ptr %3, align 8, !tbaa !21
  %27 = getelementptr inbounds nuw %struct._lv_anim_t, ptr %26, i32 0, i32 14
  %28 = load i32, ptr %27, align 4, !tbaa !43
  %29 = add i32 %25, %28
  %30 = load ptr, ptr %3, align 8, !tbaa !21
  %31 = getelementptr inbounds nuw %struct._lv_anim_t, ptr %30, i32 0, i32 15
  %32 = load i32, ptr %31, align 8, !tbaa !42
  %33 = add i32 %29, %32
  store i32 %33, ptr %5, align 4, !tbaa !26
  %34 = load i32, ptr %5, align 4, !tbaa !26
  %35 = load i32, ptr %4, align 4, !tbaa !26
  %36 = mul i32 %34, %35
  store i32 %36, ptr %5, align 4, !tbaa !26
  %37 = load i32, ptr %5, align 4, !tbaa !26
  store i32 %37, ptr %2, align 4
  call void @llvm.lifetime.end.p0(i64 4, ptr %5) #4
  call void @llvm.lifetime.end.p0(i64 4, ptr %4) #4
  br label %38

38:                                               ; preds = %18, %10
  %39 = load i32, ptr %2, align 4
  ret i32 %39
}