; Function Attrs: mustprogress nofree norecurse nosync nounwind willreturn memory(argmem: read) uwtable
define i32 @lv_anim_get_playtime(ptr nocapture noundef readonly %0) local_unnamed_addr #3 {
  %2 = getelementptr inbounds nuw i8, ptr %0, i64 104
  %3 = load i32, ptr %2, align 8, !tbaa !36
  %4 = icmp eq i32 %3, -1
  br i1 %4, label %18, label %5

5:                                                ; preds = %1
  %spec.store.select = tail call i32 @llvm.umax.i32(i32 %3, i32 1)
  %6 = getelementptr inbounds nuw i8, ptr %0, i64 100
  %7 = load i32, ptr %6, align 4, !tbaa !40
  %8 = getelementptr inbounds nuw i8, ptr %0, i64 84
  %9 = load i32, ptr %8, align 4, !tbaa !30
  %10 = add i32 %9, %7
  %11 = getelementptr inbounds nuw i8, ptr %0, i64 92
  %12 = load i32, ptr %11, align 4, !tbaa !41
  %13 = add i32 %10, %12
  %14 = getelementptr inbounds nuw i8, ptr %0, i64 96
  %15 = load i32, ptr %14, align 8, !tbaa !37
  %16 = add i32 %13, %15
  %17 = mul i32 %16, %spec.store.select
  br label %18

18:                                               ; preds = %1, %5
  %.0 = phi i32 [ %17, %5 ], [ -1, %1 ]
  ret i32 %.0
}